; Function Attrs: nounwind uwtable
define range(i32 -1, 1) i32 @H5PLsize(ptr noundef writeonly %0) local_unnamed_addr #0 {
  %2 = load i8, ptr @H5_libinit_g, align 1
  %3 = trunc i8 %2 to i1
  %4 = load i8, ptr @H5_libterm_g, align 1
  %5 = trunc i8 %4 to i1
  %6 = select i1 %3, i1 true, i1 %5
  br i1 %6, label %14, label %7

7:                                                ; preds = %1
  %8 = tail call i32 @H5_init_library() #4
  %9 = icmp slt i32 %8, 0
  br i1 %9, label %10, label %14

10:                                               ; preds = %7
  %11 = load i64, ptr @H5E_FUNC_g, align 8
  %12 = load i64, ptr @H5E_CANTINIT_g, align 8
  %13 = tail call i32 (ptr, ptr, i32, i64, i64, ptr, ...) @H5E_printf_stack(ptr noundef nonnull @.str, ptr noundef nonnull @__func__.H5PLsize, i32 noundef 381, i64 noundef %11, i64 noundef %12, ptr noundef nonnull @.str.1) #4
  br label %.thread18

14:                                               ; preds = %7, %1
  %15 = tail call i32 @H5CX_push() #4
  %16 = icmp slt i32 %15, 0
  br i1 %16, label %17, label %21

17:                                               ; preds = %14
  %18 = load i64, ptr @H5E_FUNC_g, align 8
  %19 = load i64, ptr @H5E_CANTSET_g, align 8
  %20 = tail call i32 (ptr, ptr, i32, i64, i64, ptr, ...) @H5E_printf_stack(ptr noundef nonnull @.str, ptr noundef nonnull @__func__.H5PLsize, i32 noundef 381, i64 noundef %18, i64 noundef %19, ptr noundef nonnull @.str.2) #4
  br label %.thread18

21:                                               ; preds = %14
  %22 = tail call i32 @H5E_clear_stack() #4
  %.not = icmp eq ptr %0, null
  br i1 %.not, label %.thread23, label %27

.thread23:                                        ; preds = %21
  %23 = load i64, ptr @H5E_ARGS_g, align 8
  %24 = load i64, ptr @H5E_BADVALUE_g, align 8
  %25 = tail call i32 (ptr, ptr, i32, i64, i64, ptr, ...) @H5E_printf_stack(ptr noundef nonnull @.str, ptr noundef nonnull @__func__.H5PLsize, i32 noundef 385, i64 noundef %23, i64 noundef %24, ptr noundef nonnull @.str.17) #4
  %26 = tail call i32 @H5CX_pop(i1 noundef zeroext true) #4
  br label %.thread18

27:                                               ; preds = %21
  %28 = tail call i32 @H5PL__get_num_paths() #4
  store i32 %28, ptr %0, align 4
  %29 = tail call i32 @H5CX_pop(i1 noundef zeroext true) #4
  br label %31

.thread18:                                        ; preds = %17, %10, %.thread23
  %30 = tail call i32 @H5E_dump_api_stack() #4
  br label %31

31:                                               ; preds = %27, %.thread18
  %.081321 = phi i32 [ -1, %.thread18 ], [ 0, %27 ]
  ret i32 %.081321
}